target datalayout = "e-m:e-p270:32:32-p271:32:32-p272:64:64-i64:64-i128:128-f80:128-n8:16:32:64-S128"
target triple = "x86_64-pc-linux-gnu"

%struct._asn1_ctx_t = type { i32, i32, i8, ptr, ptr, ptr, ptr, ptr, %struct.anon, %struct.anon.2, %struct.anon.3, ptr }
%struct.anon = type { i32, i8, i8, i8, ptr, ptr, i32, i32, ptr, ptr, ptr, %union.anon }
%union.anon = type { %struct.anon.0 }
%struct.anon.0 = type { ptr }
%struct.anon.2 = type { ptr, ptr, ptr }
%struct.anon.3 = type { i32, i8, ptr, i32, i32, ptr, ptr, ptr, %union.anon.4 }
%union.anon.4 = type { %struct.anon.5 }
%struct.anon.5 = type { ptr }
%struct.lpp_private_data = type { i32, i8, i8 }
%struct._packet_info = type { ptr, ptr, i32, i32, %struct.nstime_t, %struct.nstime_t, %struct.nstime_t, i8, ptr, ptr, ptr, ptr, %struct._address, %struct._address, %struct._address, %struct._address, %struct._address, %struct._address, i32, ptr, i8, [3 x i8], %struct.anon.7, i32, i32, i32, i32, ptr, i8, ptr, ptr, i16, i16, i32, i32, i16, i32, i32, ptr, ptr, ptr, i8, i8, i16, i16, i16, i32, i16, i16, ptr, ptr, ptr, ptr, ptr, i32, i32 }
%struct.nstime_t = type { i64, i32 }
%struct._address = type { i32, i32, ptr, ptr }
%struct.anon.7 = type { i8, [3 x i8] }

@ett_lpp_SegmentationInfo_r15 = internal global i32 0, align 4
@proto_lpp = internal global i32 0, align 4

; Function Attrs: null_pointer_is_valid sspstrong uwtable
define internal ptr @lpp_get_private_data(ptr noundef %0) #0 {
  %2 = alloca ptr, align 8
  %3 = alloca ptr, align 8
  store ptr %0, ptr %2, align 8
  call void @llvm.lifetime.start.p0(i64 8, ptr %3) #8
  %4 = load ptr, ptr %2, align 8
  %5 = getelementptr inbounds nuw %struct._packet_info, ptr %4, i32 0, i32 51
  %6 = load ptr, ptr %5, align 8
  %7 = load ptr, ptr %2, align 8
  %8 = load i32, ptr @proto_lpp, align 4
  %9 = call ptr @p_get_proto_data(ptr noundef %6, ptr noundef %7, i32 noundef %8, i32 noundef 0)
  store ptr %9, ptr %3, align 8
  %10 = load ptr, ptr %3, align 8
  %11 = icmp ne ptr %10, null
  br i1 %11, label %23, label %12

12:                                               ; preds = %1
  %13 = load ptr, ptr %2, align 8
  %14 = getelementptr inbounds nuw %struct._packet_info, ptr %13, i32 0, i32 51
  %15 = load ptr, ptr %14, align 8
  %16 = call noalias ptr @wmem_alloc0(ptr noundef %15, i64 noundef 8) #9
  store ptr %16, ptr %3, align 8
  %17 = load ptr, ptr %2, align 8
  %18 = getelementptr inbounds nuw %struct._packet_info, ptr %17, i32 0, i32 51
  %19 = load ptr, ptr %18, align 8
  %20 = load ptr, ptr %2, align 8
  %21 = load i32, ptr @proto_lpp, align 4
  %22 = load ptr, ptr %3, align 8
  call void @p_add_proto_data(ptr noundef %19, ptr noundef %20, i32 noundef %21, i32 noundef 0, ptr noundef %22)
  br label %23

23:                                               ; preds = %12, %1
  %24 = load ptr, ptr %3, align 8
  call void @llvm.lifetime.end.p0(i64 8, ptr %3) #8
  ret ptr %24
}

; Function Attrs: null_pointer_is_valid sspstrong uwtable
define internal i32 @dissect_lpp_SegmentationInfo_r15(ptr noundef %0, i32 noundef %1, ptr noundef %2, ptr noundef %3, i32 noundef %4) #0 {
  %6 = alloca ptr, align 8
  %7 = alloca i32, align 4
  %8 = alloca ptr, align 8
  %9 = alloca ptr, align 8
  %10 = alloca i32, align 4
  store ptr %0, ptr %6, align 8
  store i32 %1, ptr %7, align 4
  store ptr %2, ptr %8, align 8
  store ptr %3, ptr %9, align 8
  store i32 %4, ptr %10, align 4
  %11 = load ptr, ptr %8, align 8
  %12 = getelementptr inbounds nuw %struct._asn1_ctx_t, ptr %11, i32 0, i32 3
  %13 = load ptr, ptr %12, align 8
  %14 = call ptr @lpp_get_private_data(ptr noundef %13)
  %15 = getelementptr inbounds nuw %struct.lpp_private_data, ptr %14, i32 0, i32 2
  store i8 1, ptr %15, align 1
  %16 = load ptr, ptr %6, align 8
  %17 = load i32, ptr %7, align 4
  %18 = load ptr, ptr %8, align 8
  %19 = load ptr, ptr %9, align 8
  %20 = load i32, ptr %10, align 4
  %21 = load i32, ptr @ett_lpp_SegmentationInfo_r15, align 4
  %22 = call i32 @dissect_per_sequence(ptr noundef %16, i32 noundef %17, ptr noundef %18, ptr noundef %19, i32 noundef %20, i32 noundef %21, ptr noundef @SegmentationInfo_r15_sequence)
  store i32 %22, ptr %7, align 4
  %23 = load i32, ptr %7, align 4
  ret i32 %23
}